; Function Attrs: mustprogress uwtable
define internal fastcc void @_ZN5boost9unit_test16results_reporter12_GLOBAL__N_121results_reporter_implC2Ev() unnamed_addr #3 align 2 personality ptr @__gxx_personality_v0 {
  store ptr getelementptr inbounds inrange(-16, 48) (i8, ptr @_ZTVN5boost9unit_test16results_reporter12_GLOBAL__N_121results_reporter_implE, i64 16), ptr @_ZZN5boost9unit_test16results_reporter12_GLOBAL__N_19s_rr_implEvE8the_inst, align 8, !tbaa !14
  store ptr @_ZSt4cerr, ptr getelementptr inbounds nuw (i8, ptr @_ZZN5boost9unit_test16results_reporter12_GLOBAL__N_19s_rr_implEvE8the_inst, i64 8), align 8, !tbaa !13
  %1 = tail call noalias noundef nonnull dereferenceable(32) ptr @_Znwm(i64 noundef 32) #10
  %2 = load ptr, ptr @_ZSt4cerr, align 8, !tbaa !14
  %3 = getelementptr i8, ptr %2, i64 -24
  %4 = load i64, ptr %3, align 8
  %5 = getelementptr inbounds i8, ptr @_ZSt4cerr, i64 %4
  store ptr %5, ptr %1, align 8, !tbaa !16
  %6 = getelementptr inbounds nuw i8, ptr %1, i64 8
  %7 = getelementptr inbounds nuw i8, ptr %5, i64 24
  %8 = load i32, ptr %7, align 8, !tbaa !17
  store i32 %8, ptr %6, align 8, !tbaa !25
  %9 = getelementptr inbounds nuw i8, ptr %1, i64 16
  %10 = getelementptr inbounds nuw i8, ptr %5, i64 8
  %11 = load i64, ptr %10, align 8, !tbaa !27
  store i64 %11, ptr %9, align 8, !tbaa !28
  %12 = getelementptr inbounds nuw i8, ptr %1, i64 24
  %13 = getelementptr inbounds nuw i8, ptr %5, i64 16
  %14 = load i64, ptr %13, align 8, !tbaa !29
  store i64 %14, ptr %12, align 8, !tbaa !30
  store ptr %1, ptr getelementptr inbounds nuw (i8, ptr @_ZZN5boost9unit_test16results_reporter12_GLOBAL__N_19s_rr_implEvE8the_inst, i64 16), align 8, !tbaa !31
  store i32 1, ptr getelementptr inbounds nuw (i8, ptr @_ZZN5boost9unit_test16results_reporter12_GLOBAL__N_19s_rr_implEvE8the_inst, i64 24), align 8, !tbaa !4
  %15 = invoke noalias noundef nonnull dereferenceable(24) ptr @_Znwm(i64 noundef 24) #10
          to label %16 unwind label %19

16:                                               ; preds = %0
  store ptr getelementptr inbounds inrange(-16, 56) (i8, ptr @_ZTVN5boost9unit_test6output22plain_report_formatterE, i64 16), ptr %15, align 8, !tbaa !14
  %17 = getelementptr inbounds nuw i8, ptr %15, i64 8
  store i64 0, ptr %17, align 8, !tbaa !33
  %18 = getelementptr inbounds nuw i8, ptr %15, i64 16
  store i8 0, ptr %18, align 8, !tbaa !37
  store ptr %15, ptr getelementptr inbounds nuw (i8, ptr @_ZZN5boost9unit_test16results_reporter12_GLOBAL__N_19s_rr_implEvE8the_inst, i64 32), align 8, !tbaa !38
  ret void

19:                                               ; preds = %0
  %20 = landingpad { ptr, i32 }
          cleanup
  tail call void @_ZN5boost10scoped_ptrINS_2io18ios_base_all_saverEED2Ev(ptr noundef nonnull align 8 dereferenceable(8) getelementptr inbounds nuw (i8, ptr @_ZZN5boost9unit_test16results_reporter12_GLOBAL__N_19s_rr_implEvE8the_inst, i64 16)) #9
  resume { ptr, i32 } %20
}